target datalayout = "e-m:e-p270:32:32-p271:32:32-p272:64:64-i64:64-i128:128-f80:128-n8:16:32:64-S128"
target triple = "x86_64-pc-linux-gnu"

%struct.Dar_RwrPar_t_ = type { i32, i32, i32, i32, i32, i32, i32, i32, i32, i32 }
%struct.Dar_RefPar_t_ = type { i32, i32, i32, i32, i32, i32, i32, i32 }

@.str = private unnamed_addr constant [12 x i8] c"Starting:  \00", align 1
@.str.1 = private unnamed_addr constant [12 x i8] c"Balance:   \00", align 1
@.str.2 = private unnamed_addr constant [12 x i8] c"Rewrite:   \00", align 1
@.str.3 = private unnamed_addr constant [12 x i8] c"Refactor:  \00", align 1
@.str.4 = private unnamed_addr constant [12 x i8] c"RewriteZ:  \00", align 1

; Function Attrs: nounwind uwtable
define ptr @Dar_NewCompress(ptr noundef %0, i32 noundef %1, i32 noundef %2, i32 noundef %3, i32 noundef %4) #0 {
  %6 = alloca ptr, align 8
  %7 = alloca i32, align 4
  %8 = alloca i32, align 4
  %9 = alloca i32, align 4
  %10 = alloca i32, align 4
  %11 = alloca ptr, align 8
  %12 = alloca %struct.Dar_RwrPar_t_, align 4
  %13 = alloca ptr, align 8
  %14 = alloca %struct.Dar_RefPar_t_, align 4
  %15 = alloca ptr, align 8
  store ptr %0, ptr %6, align 8, !tbaa !3
  store i32 %1, ptr %7, align 4, !tbaa !10
  store i32 %2, ptr %8, align 4, !tbaa !10
  store i32 %3, ptr %9, align 4, !tbaa !10
  store i32 %4, ptr %10, align 4, !tbaa !10
  call void @llvm.lifetime.start.p0(i64 8, ptr %11) #9
  call void @llvm.lifetime.start.p0(i64 40, ptr %12) #9
  call void @llvm.lifetime.start.p0(i64 8, ptr %13) #9
  store ptr %12, ptr %13, align 8, !tbaa !8
  call void @llvm.lifetime.start.p0(i64 32, ptr %14) #9
  call void @llvm.lifetime.start.p0(i64 8, ptr %15) #9
  store ptr %14, ptr %15, align 8, !tbaa !26
  %16 = load ptr, ptr %13, align 8, !tbaa !8
  call void @Dar_ManDefaultRwrParams(ptr noundef %16)
  %17 = load ptr, ptr %15, align 8, !tbaa !26
  call void @Dar_ManDefaultRefParams(ptr noundef %17)
  %18 = load i32, ptr %8, align 4, !tbaa !10
  %19 = load ptr, ptr %13, align 8, !tbaa !8
  %20 = getelementptr inbounds nuw %struct.Dar_RwrPar_t_, ptr %19, i32 0, i32 4
  store i32 %18, ptr %20, align 4, !tbaa !28
  %21 = load i32, ptr %8, align 4, !tbaa !10
  %22 = load ptr, ptr %15, align 8, !tbaa !26
  %23 = getelementptr inbounds nuw %struct.Dar_RefPar_t_, ptr %22, i32 0, i32 4
  store i32 %21, ptr %23, align 4, !tbaa !30
  %24 = load i32, ptr %9, align 4, !tbaa !10
  %25 = load ptr, ptr %13, align 8, !tbaa !8
  %26 = getelementptr inbounds nuw %struct.Dar_RwrPar_t_, ptr %25, i32 0, i32 6
  store i32 %24, ptr %26, align 4, !tbaa !34
  %27 = load ptr, ptr %13, align 8, !tbaa !8
  %28 = getelementptr inbounds nuw %struct.Dar_RwrPar_t_, ptr %27, i32 0, i32 8
  store i32 0, ptr %28, align 4, !tbaa !32
  %29 = load ptr, ptr %15, align 8, !tbaa !26
  %30 = getelementptr inbounds nuw %struct.Dar_RefPar_t_, ptr %29, i32 0, i32 6
  store i32 0, ptr %30, align 4, !tbaa !33
  %31 = load i32, ptr %10, align 4, !tbaa !10
  %32 = icmp ne i32 %31, 0
  br i1 %32, label %33, label %36

33:                                               ; preds = %5
  %34 = call i32 (ptr, ...) @printf(ptr noundef @.str)
  %35 = load ptr, ptr %6, align 8, !tbaa !3
  call void @Aig_ManPrintStats(ptr noundef %35)
  br label %36

36:                                               ; preds = %33, %5
  %37 = load ptr, ptr %6, align 8, !tbaa !3
  %38 = load ptr, ptr %13, align 8, !tbaa !8
  %39 = call i32 @Dar_ManRewrite(ptr noundef %37, ptr noundef %38)
  %40 = load ptr, ptr %6, align 8, !tbaa !3
  store ptr %40, ptr %11, align 8, !tbaa !3
  %41 = call ptr @Aig_ManDupDfs(ptr noundef %40)
  store ptr %41, ptr %6, align 8, !tbaa !3
  %42 = load ptr, ptr %11, align 8, !tbaa !3
  call void @Aig_ManStop(ptr noundef %42)
  %43 = load i32, ptr %10, align 4, !tbaa !10
  %44 = icmp ne i32 %43, 0
  br i1 %44, label %45, label %48

45:                                               ; preds = %36
  %46 = call i32 (ptr, ...) @printf(ptr noundef @.str.2)
  %47 = load ptr, ptr %6, align 8, !tbaa !3
  call void @Aig_ManPrintStats(ptr noundef %47)
  br label %48

48:                                               ; preds = %45, %36
  %49 = load ptr, ptr %6, align 8, !tbaa !3
  %50 = load ptr, ptr %15, align 8, !tbaa !26
  %51 = call i32 @Dar_ManRefactor(ptr noundef %49, ptr noundef %50)
  %52 = load ptr, ptr %6, align 8, !tbaa !3
  store ptr %52, ptr %11, align 8, !tbaa !3
  %53 = call ptr @Aig_ManDupDfs(ptr noundef %52)
  store ptr %53, ptr %6, align 8, !tbaa !3
  %54 = load ptr, ptr %11, align 8, !tbaa !3
  call void @Aig_ManStop(ptr noundef %54)
  %55 = load i32, ptr %10, align 4, !tbaa !10
  %56 = icmp ne i32 %55, 0
  br i1 %56, label %57, label %60

57:                                               ; preds = %48
  %58 = call i32 (ptr, ...) @printf(ptr noundef @.str.3)
  %59 = load ptr, ptr %6, align 8, !tbaa !3
  call void @Aig_ManPrintStats(ptr noundef %59)
  br label %60

60:                                               ; preds = %57, %48
  %61 = load i32, ptr %7, align 4, !tbaa !10
  %62 = icmp ne i32 %61, 0
  br i1 %62, label %63, label %74

63:                                               ; preds = %60
  %64 = load ptr, ptr %6, align 8, !tbaa !3
  store ptr %64, ptr %11, align 8, !tbaa !3
  %65 = load i32, ptr %8, align 4, !tbaa !10
  %66 = call ptr @Dar_ManBalance(ptr noundef %64, i32 noundef %65)
  store ptr %66, ptr %6, align 8, !tbaa !3
  %67 = load ptr, ptr %11, align 8, !tbaa !3
  call void @Aig_ManStop(ptr noundef %67)
  %68 = load i32, ptr %10, align 4, !tbaa !10
  %69 = icmp ne i32 %68, 0
  br i1 %69, label %70, label %73

70:                                               ; preds = %63
  %71 = call i32 (ptr, ...) @printf(ptr noundef @.str.1)
  %72 = load ptr, ptr %6, align 8, !tbaa !3
  call void @Aig_ManPrintStats(ptr noundef %72)
  br label %73

73:                                               ; preds = %70, %63
  br label %74

74:                                               ; preds = %73, %60
  %75 = load ptr, ptr %13, align 8, !tbaa !8
  %76 = getelementptr inbounds nuw %struct.Dar_RwrPar_t_, ptr %75, i32 0, i32 5
  store i32 1, ptr %76, align 4, !tbaa !35
  %77 = load ptr, ptr %15, align 8, !tbaa !26
  %78 = getelementptr inbounds nuw %struct.Dar_RefPar_t_, ptr %77, i32 0, i32 5
  store i32 1, ptr %78, align 4, !tbaa !36
  %79 = load ptr, ptr %6, align 8, !tbaa !3
  %80 = load ptr, ptr %13, align 8, !tbaa !8
  %81 = call i32 @Dar_ManRewrite(ptr noundef %79, ptr noundef %80)
  %82 = load ptr, ptr %6, align 8, !tbaa !3
  store ptr %82, ptr %11, align 8, !tbaa !3
  %83 = call ptr @Aig_ManDupDfs(ptr noundef %82)
  store ptr %83, ptr %6, align 8, !tbaa !3
  %84 = load ptr, ptr %11, align 8, !tbaa !3
  call void @Aig_ManStop(ptr noundef %84)
  %85 = load i32, ptr %10, align 4, !tbaa !10
  %86 = icmp ne i32 %85, 0
  br i1 %86, label %87, label %90

87:                                               ; preds = %74
  %88 = call i32 (ptr, ...) @printf(ptr noundef @.str.4)
  %89 = load ptr, ptr %6, align 8, !tbaa !3
  call void @Aig_ManPrintStats(ptr noundef %89)
  br label %90

90:                                               ; preds = %87, %74
  %91 = load ptr, ptr %6, align 8, !tbaa !3
  call void @llvm.lifetime.end.p0(i64 8, ptr %15) #9
  call void @llvm.lifetime.end.p0(i64 32, ptr %14) #9
  call void @llvm.lifetime.end.p0(i64 8, ptr %13) #9
  call void @llvm.lifetime.end.p0(i64 40, ptr %12) #9
  call void @llvm.lifetime.end.p0(i64 8, ptr %11) #9
  ret ptr %91
}