; Function Attrs: nounwind uwtable
define ptr @Dar_NewCompress(ptr noundef %0, i32 noundef %1, i32 noundef %2, i32 noundef %3, i32 noundef %4) local_unnamed_addr #0 {
  %6 = alloca %struct.Dar_RwrPar_t_, align 4
  %7 = alloca %struct.Dar_RefPar_t_, align 4
  call void @llvm.lifetime.start.p0(i64 40, ptr nonnull %6) #13
  call void @llvm.lifetime.start.p0(i64 32, ptr nonnull %7) #13
  call void @Dar_ManDefaultRwrParams(ptr noundef nonnull %6) #13
  call void @Dar_ManDefaultRefParams(ptr noundef nonnull %7) #13
  %8 = getelementptr inbounds nuw i8, ptr %6, i64 16
  store i32 %2, ptr %8, align 4, !tbaa !21
  %9 = getelementptr inbounds nuw i8, ptr %7, i64 16
  store i32 %2, ptr %9, align 4, !tbaa !23
  %10 = getelementptr inbounds nuw i8, ptr %6, i64 24
  store i32 %3, ptr %10, align 4, !tbaa !30
  %11 = getelementptr inbounds nuw i8, ptr %6, i64 32
  store i32 0, ptr %11, align 4, !tbaa !25
  %12 = getelementptr inbounds nuw i8, ptr %7, i64 24
  store i32 0, ptr %12, align 4, !tbaa !26
  %.not = icmp eq i32 %4, 0
  br i1 %.not, label %15, label %13

13:                                               ; preds = %5
  %14 = call i32 (ptr, ...) @printf(ptr noundef nonnull dereferenceable(1) @.str)
  call void @Aig_ManPrintStats(ptr noundef %0) #13
  br label %15

15:                                               ; preds = %13, %5
  %16 = call i32 @Dar_ManRewrite(ptr noundef %0, ptr noundef nonnull %6) #13
  %17 = call ptr @Aig_ManDupDfs(ptr noundef %0) #13
  call void @Aig_ManStop(ptr noundef %0) #13
  br i1 %.not, label %20, label %18

18:                                               ; preds = %15
  %19 = call i32 (ptr, ...) @printf(ptr noundef nonnull dereferenceable(1) @.str.2)
  call void @Aig_ManPrintStats(ptr noundef %17) #13
  br label %20

20:                                               ; preds = %18, %15
  %21 = call i32 @Dar_ManRefactor(ptr noundef %17, ptr noundef nonnull %7) #13
  %22 = call ptr @Aig_ManDupDfs(ptr noundef %17) #13
  call void @Aig_ManStop(ptr noundef %17) #13
  br i1 %.not, label %25, label %23

23:                                               ; preds = %20
  %24 = call i32 (ptr, ...) @printf(ptr noundef nonnull dereferenceable(1) @.str.3)
  call void @Aig_ManPrintStats(ptr noundef %22) #13
  br label %25

25:                                               ; preds = %23, %20
  %.not38 = icmp eq i32 %1, 0
  br i1 %.not38, label %30, label %26

26:                                               ; preds = %25
  %27 = call ptr @Dar_ManBalance(ptr noundef %22, i32 noundef %2) #13
  call void @Aig_ManStop(ptr noundef %22) #13
  br i1 %.not, label %30, label %28

28:                                               ; preds = %26
  %29 = call i32 (ptr, ...) @printf(ptr noundef nonnull dereferenceable(1) @.str.1)
  call void @Aig_ManPrintStats(ptr noundef %27) #13
  br label %30

30:                                               ; preds = %26, %28, %25
  %.0 = phi ptr [ %27, %28 ], [ %27, %26 ], [ %22, %25 ]
  %31 = getelementptr inbounds nuw i8, ptr %6, i64 20
  store i32 1, ptr %31, align 4, !tbaa !31
  %32 = getelementptr inbounds nuw i8, ptr %7, i64 20
  store i32 1, ptr %32, align 4, !tbaa !32
  %33 = call i32 @Dar_ManRewrite(ptr noundef %.0, ptr noundef nonnull %6) #13
  %34 = call ptr @Aig_ManDupDfs(ptr noundef %.0) #13
  call void @Aig_ManStop(ptr noundef %.0) #13
  br i1 %.not, label %37, label %35

35:                                               ; preds = %30
  %36 = call i32 (ptr, ...) @printf(ptr noundef nonnull dereferenceable(1) @.str.4)
  call void @Aig_ManPrintStats(ptr noundef %34) #13
  br label %37

37:                                               ; preds = %35, %30
  call void @llvm.lifetime.end.p0(i64 32, ptr nonnull %7) #13
  call void @llvm.lifetime.end.p0(i64 40, ptr nonnull %6) #13
  ret ptr %34
}